; Function Attrs: mustprogress uwtable
define hidden noundef i64 @_ZNK17opencv_tensorflow6OpList12ByteSizeLongEv(ptr noundef nonnull align 8 dereferenceable(48) %0) unnamed_addr #3 align 2 {
  %2 = getelementptr inbounds nuw i8, ptr %0, i64 24
  %3 = load i32, ptr %2, align 8, !tbaa !72
  %4 = sext i32 %3 to i64
  %5 = getelementptr inbounds nuw i8, ptr %0, i64 32
  %6 = load ptr, ptr %5, align 8, !tbaa !71
  %.not.i.i = icmp eq ptr %6, null
  %7 = getelementptr inbounds nuw i8, ptr %6, i64 8
  %spec.select.i.i = select i1 %.not.i.i, ptr null, ptr %7
  %8 = getelementptr inbounds ptr, ptr %spec.select.i.i, i64 %4
  %.not11 = icmp eq i32 %3, 0
  br i1 %.not11, label %._crit_edge, label %.lr.ph

._crit_edge:                                      ; preds = %.lr.ph, %1
  %.0.lcssa = phi i64 [ 0, %1 ], [ %22, %.lr.ph ]
  %9 = getelementptr inbounds nuw i8, ptr %0, i64 40
  %10 = tail call noundef i64 @_ZNK6google8protobuf7Message29MaybeComputeUnknownFieldsSizeEmPNS0_8internal10CachedSizeE(ptr noundef nonnull align 8 dereferenceable(16) %0, i64 noundef %.0.lcssa, ptr noundef nonnull %9)
  ret i64 %10

.lr.ph:                                           ; preds = %1, %.lr.ph
  %.013 = phi i64 [ %22, %.lr.ph ], [ %4, %1 ]
  %.sroa.08.012 = phi ptr [ %23, %.lr.ph ], [ %spec.select.i.i, %1 ]
  %11 = load ptr, ptr %.sroa.08.012, align 8, !tbaa !56
  %12 = tail call noundef i64 @_ZNK17opencv_tensorflow5OpDef12ByteSizeLongEv(ptr noundef nonnull align 8 dereferenceable(128) %11)
  %13 = trunc i64 %12 to i32
  %14 = or i32 %13, 1
  %15 = tail call range(i32 0, 33) i32 @llvm.ctlz.i32(i32 %14, i1 true)
  %16 = xor i32 %15, 31
  %17 = mul nuw nsw i32 %16, 9
  %18 = add nuw nsw i32 %17, 73
  %19 = lshr i32 %18, 6
  %20 = zext nneg i32 %19 to i64
  %21 = add i64 %12, %.013
  %22 = add i64 %21, %20
  %23 = getelementptr inbounds nuw i8, ptr %.sroa.08.012, i64 8
  %.not = icmp eq ptr %23, %8
  br i1 %.not, label %._crit_edge, label %.lr.ph
}